target datalayout = "e-m:e-p270:32:32-p271:32:32-p272:64:64-i64:64-i128:128-f80:128-n8:16:32:64-S128"
target triple = "x86_64-unknown-linux-gnu"

%"union.absl::functional_internal::VoidPtr" = type { ptr }
%struct.LargeTrivial = type { [3 x ptr] }
%class.anon.109 = type { ptr }
%"class.absl::FunctionRef.110" = type { %"union.absl::functional_internal::VoidPtr", ptr }
%struct.Trivial = type { [2 x ptr] }
%class.anon.111 = type { ptr }
%"class.absl::FunctionRef.112" = type { %"union.absl::functional_internal::VoidPtr", ptr }

; Function Attrs: mustprogress nounwind uwtable
define internal void @"_ZN4absl19functional_internal13AssertNonNullIZNS_12_GLOBAL__N_133FunctionRef_PassByValueTypes_Test8TestBodyEvE3$_1EEvRKT_"(ptr noundef nonnull align 8 dereferenceable(8) %0) #7 {
entry:
  %.addr = alloca ptr, align 8
  store ptr %0, ptr %.addr, align 8
  ret void
}

; Function Attrs: mustprogress nounwind uwtable
define internal void @"_ZN4absl19functional_internal13AssertNonNullIZNS_12_GLOBAL__N_133FunctionRef_PassByValueTypes_Test8TestBodyEvE3$_0EEvRKT_"(ptr noundef nonnull align 8 dereferenceable(8) %0) #7 {
entry:
  %.addr = alloca ptr, align 8
  store ptr %0, ptr %.addr, align 8
  ret void
}

; Function Attrs: mustprogress uwtable
define internal void @_ZNK4absl11FunctionRefIFvRZNS_12_GLOBAL__N_133FunctionRef_PassByValueTypes_Test8TestBodyEvE7TrivialEEclES4_(ptr noundef nonnull align 8 dereferenceable(16) %this, ptr noundef nonnull align 8 dereferenceable(16) %args) #4 align 2 {
entry:
  %this.addr = alloca ptr, align 8
  %args.addr = alloca ptr, align 8
  %agg.tmp = alloca %"union.absl::functional_internal::VoidPtr", align 8
  store ptr %this, ptr %this.addr, align 8
  store ptr %args, ptr %args.addr, align 8
  %this1 = load ptr, ptr %this.addr, align 8
  %invoker_ = getelementptr inbounds %"class.absl::FunctionRef.112", ptr %this1, i32 0, i32 1
  %0 = load ptr, ptr %invoker_, align 8
  %ptr_ = getelementptr inbounds %"class.absl::FunctionRef.112", ptr %this1, i32 0, i32 0
  call void @llvm.memcpy.p0.p0.i64(ptr align 8 %agg.tmp, ptr align 8 %ptr_, i64 8, i1 false)
  %1 = load ptr, ptr %args.addr, align 8
  %coerce.dive = getelementptr inbounds %"union.absl::functional_internal::VoidPtr", ptr %agg.tmp, i32 0, i32 0
  %2 = load ptr, ptr %coerce.dive, align 8
  call void %0(ptr %2, ptr noundef nonnull align 8 dereferenceable(16) %1)
  ret void
}

; Function Attrs: mustprogress uwtable
define internal void @"_ZN4absl11FunctionRefIFvRZNS_12_GLOBAL__N_133FunctionRef_PassByValueTypes_Test8TestBodyEvE7TrivialEEC2IZNS2_8TestBodyEvE3$_1vEERKT_"(ptr noundef nonnull align 8 dereferenceable(16) %this, ptr noundef nonnull align 8 dereferenceable(8) %f) unnamed_addr #4 align 2 {
entry:
  %this.addr = alloca ptr, align 8
  %f.addr = alloca ptr, align 8
  store ptr %this, ptr %this.addr, align 8
  store ptr %f, ptr %f.addr, align 8
  %this1 = load ptr, ptr %this.addr, align 8
  %invoker_ = getelementptr inbounds %"class.absl::FunctionRef.112", ptr %this1, i32 0, i32 1
  store ptr @"_ZN4absl19functional_internal12InvokeObjectIZNS_12_GLOBAL__N_133FunctionRef_PassByValueTypes_Test8TestBodyEvE3$_1vJRZNS3_8TestBodyEvE7TrivialEEET0_NS0_7VoidPtrEDpNS0_8ForwardTIT1_E4typeE", ptr %invoker_, align 8
  %0 = load ptr, ptr %f.addr, align 8
  call void @"_ZN4absl19functional_internal13AssertNonNullIZNS_12_GLOBAL__N_133FunctionRef_PassByValueTypes_Test8TestBodyEvE3$_1EEvRKT_"(ptr noundef nonnull align 8 dereferenceable(8) %0)
  %1 = load ptr, ptr %f.addr, align 8
  %ptr_2 = getelementptr inbounds %"class.absl::FunctionRef.112", ptr %this1, i32 0, i32 0
  store ptr %1, ptr %ptr_2, align 8
  ret void
}

; Function Attrs: mustprogress uwtable
define internal void @_ZNK4absl11FunctionRefIFvRZNS_12_GLOBAL__N_133FunctionRef_PassByValueTypes_Test8TestBodyEvE12LargeTrivialEEclES4_(ptr noundef nonnull align 8 dereferenceable(16) %this, ptr noundef nonnull align 8 dereferenceable(24) %args) #4 align 2 {
entry:
  %this.addr = alloca ptr, align 8
  %args.addr = alloca ptr, align 8
  %agg.tmp = alloca %"union.absl::functional_internal::VoidPtr", align 8
  store ptr %this, ptr %this.addr, align 8
  store ptr %args, ptr %args.addr, align 8
  %this1 = load ptr, ptr %this.addr, align 8
  %invoker_ = getelementptr inbounds %"class.absl::FunctionRef.110", ptr %this1, i32 0, i32 1
  %0 = load ptr, ptr %invoker_, align 8
  %ptr_ = getelementptr inbounds %"class.absl::FunctionRef.110", ptr %this1, i32 0, i32 0
  call void @llvm.memcpy.p0.p0.i64(ptr align 8 %agg.tmp, ptr align 8 %ptr_, i64 8, i1 false)
  %1 = load ptr, ptr %args.addr, align 8
  %coerce.dive = getelementptr inbounds %"union.absl::functional_internal::VoidPtr", ptr %agg.tmp, i32 0, i32 0
  %2 = load ptr, ptr %coerce.dive, align 8
  call void %0(ptr %2, ptr noundef nonnull align 8 dereferenceable(24) %1)
  ret void
}

; Function Attrs: mustprogress uwtable
define internal void @"_ZN4absl11FunctionRefIFvRZNS_12_GLOBAL__N_133FunctionRef_PassByValueTypes_Test8TestBodyEvE12LargeTrivialEEC2IZNS2_8TestBodyEvE3$_0vEERKT_"(ptr noundef nonnull align 8 dereferenceable(16) %this, ptr noundef nonnull align 8 dereferenceable(8) %f) unnamed_addr #4 align 2 {
entry:
  %this.addr = alloca ptr, align 8
  %f.addr = alloca ptr, align 8
  store ptr %this, ptr %this.addr, align 8
  store ptr %f, ptr %f.addr, align 8
  %this1 = load ptr, ptr %this.addr, align 8
  %invoker_ = getelementptr inbounds %"class.absl::FunctionRef.110", ptr %this1, i32 0, i32 1
  store ptr @"_ZN4absl19functional_internal12InvokeObjectIZNS_12_GLOBAL__N_133FunctionRef_PassByValueTypes_Test8TestBodyEvE3$_0vJRZNS3_8TestBodyEvE12LargeTrivialEEET0_NS0_7VoidPtrEDpNS0_8ForwardTIT1_E4typeE", ptr %invoker_, align 8
  %0 = load ptr, ptr %f.addr, align 8
  call void @"_ZN4absl19functional_internal13AssertNonNullIZNS_12_GLOBAL__N_133FunctionRef_PassByValueTypes_Test8TestBodyEvE3$_0EEvRKT_"(ptr noundef nonnull align 8 dereferenceable(8) %0)
  %1 = load ptr, ptr %f.addr, align 8
  %ptr_2 = getelementptr inbounds %"class.absl::FunctionRef.110", ptr %this1, i32 0, i32 0
  store ptr %1, ptr %ptr_2, align 8
  ret void
}

; Function Attrs: mustprogress uwtable
define internal void @_ZN4absl12_GLOBAL__N_133FunctionRef_PassByValueTypes_Test8TestBodyEv(ptr noundef nonnull align 8 dereferenceable(16) %this) unnamed_addr #4 align 2 {
entry:
  %this.addr = alloca ptr, align 8
  %obj = alloca %struct.LargeTrivial, align 8
  %test = alloca %class.anon.109, align 8
  %ref = alloca %"class.absl::FunctionRef.110", align 8
  %obj2 = alloca %struct.Trivial, align 8
  %test3 = alloca %class.anon.111, align 8
  %ref4 = alloca %"class.absl::FunctionRef.112", align 8
  store ptr %this, ptr %this.addr, align 8
  %0 = getelementptr inbounds %class.anon.109, ptr %test, i32 0, i32 0
  store ptr %obj, ptr %0, align 8
  call void @"_ZN4absl11FunctionRefIFvRZNS_12_GLOBAL__N_133FunctionRef_PassByValueTypes_Test8TestBodyEvE12LargeTrivialEEC2IZNS2_8TestBodyEvE3$_0vEERKT_"(ptr noundef nonnull align 8 dereferenceable(16) %ref, ptr noundef nonnull align 8 dereferenceable(8) %test)
  call void @_ZNK4absl11FunctionRefIFvRZNS_12_GLOBAL__N_133FunctionRef_PassByValueTypes_Test8TestBodyEvE12LargeTrivialEEclES4_(ptr noundef nonnull align 8 dereferenceable(16) %ref, ptr noundef nonnull align 8 dereferenceable(24) %obj)
  %1 = getelementptr inbounds %class.anon.111, ptr %test3, i32 0, i32 0
  store ptr %obj2, ptr %1, align 8
  call void @"_ZN4absl11FunctionRefIFvRZNS_12_GLOBAL__N_133FunctionRef_PassByValueTypes_Test8TestBodyEvE7TrivialEEC2IZNS2_8TestBodyEvE3$_1vEERKT_"(ptr noundef nonnull align 8 dereferenceable(16) %ref4, ptr noundef nonnull align 8 dereferenceable(8) %test3)
  call void @_ZNK4absl11FunctionRefIFvRZNS_12_GLOBAL__N_133FunctionRef_PassByValueTypes_Test8TestBodyEvE7TrivialEEclES4_(ptr noundef nonnull align 8 dereferenceable(16) %ref4, ptr noundef nonnull align 8 dereferenceable(16) %obj2)
  ret void
}