; Function Attrs: mustprogress uwtable
define internal void @_ZN4absl12_GLOBAL__N_133FunctionRef_PassByValueTypes_Test8TestBodyEv(ptr nocapture nonnull readnone align 8 %this) unnamed_addr #3 align 2 personality ptr @__gxx_personality_v0 {
_ZN7testing8internal8EqHelper7CompareIPZN4absl12_GLOBAL__N_133FunctionRef_PassByValueTypes_Test8TestBodyEvE12LargeTrivialS7_TnPNSt9enable_ifIXoontsr3std11is_integralIT_EE5valuentsr3std10is_pointerIT0_EE5valueEvE4typeELPv0EEENS_15AssertionResultEPKcSH_RKS9_RKSA_.exit.i.i.i.i.i:
  %gtest_ar.i.i.i.i.i8 = alloca %"class.testing::AssertionResult", align 8
  %ref.tmp3.i.i.i.i.i9 = alloca %"class.testing::Message", align 8
  %ref.tmp4.i.i.i.i.i10 = alloca %"class.testing::internal::AssertHelper", align 8
  %gtest_ar.i.i.i.i.i = alloca %"class.testing::AssertionResult", align 8
  %ref.tmp3.i.i.i.i.i = alloca %"class.testing::Message", align 8
  %ref.tmp4.i.i.i.i.i = alloca %"class.testing::internal::AssertHelper", align 8
  call void @llvm.lifetime.start.p0(i64 16, ptr nonnull %gtest_ar.i.i.i.i.i)
  call void @llvm.lifetime.start.p0(i64 8, ptr nonnull %ref.tmp3.i.i.i.i.i)
  call void @llvm.lifetime.start.p0(i64 8, ptr nonnull %ref.tmp4.i.i.i.i.i)
  call void @_ZN7testing16AssertionSuccessEv(ptr nonnull sret(%"class.testing::AssertionResult") align 8 %gtest_ar.i.i.i.i.i)
  %0 = load i8, ptr %gtest_ar.i.i.i.i.i, align 8
  %1 = and i8 %0, 1
  %tobool.i.not.i.i.i.i.i = icmp eq i8 %1, 0
  br i1 %tobool.i.not.i.i.i.i.i, label %if.else.i.i.i.i.i, label %cleanup.i.i.i.i.i

common.resume:                                    ; preds = %_ZN7testing7MessageD2Ev.exit7.i.i.i.i.i55, %lpad.i.i.i.i.i38, %_ZN7testing7MessageD2Ev.exit7.i.i.i.i.i, %lpad.i.i.i.i.i
  %gtest_ar.i.i.i.i.i8.sink = phi ptr [ %gtest_ar.i.i.i.i.i, %lpad.i.i.i.i.i ], [ %gtest_ar.i.i.i.i.i, %_ZN7testing7MessageD2Ev.exit7.i.i.i.i.i ], [ %gtest_ar.i.i.i.i.i8, %lpad.i.i.i.i.i38 ], [ %gtest_ar.i.i.i.i.i8, %_ZN7testing7MessageD2Ev.exit7.i.i.i.i.i55 ]
  %common.resume.op = phi { ptr, i32 } [ %5, %lpad.i.i.i.i.i ], [ %.pn.i.i.i.i.i, %_ZN7testing7MessageD2Ev.exit7.i.i.i.i.i ], [ %16, %lpad.i.i.i.i.i38 ], [ %.pn.i.i.i.i.i50, %_ZN7testing7MessageD2Ev.exit7.i.i.i.i.i55 ]
  call void @_ZN7testing15AssertionResultD2Ev(ptr noundef nonnull align 8 dereferenceable(16) %gtest_ar.i.i.i.i.i8.sink) #16
  resume { ptr, i32 } %common.resume.op

if.else.i.i.i.i.i:                                ; preds = %_ZN7testing8internal8EqHelper7CompareIPZN4absl12_GLOBAL__N_133FunctionRef_PassByValueTypes_Test8TestBodyEvE12LargeTrivialS7_TnPNSt9enable_ifIXoontsr3std11is_integralIT_EE5valuentsr3std10is_pointerIT0_EE5valueEvE4typeELPv0EEENS_15AssertionResultEPKcSH_RKS9_RKSA_.exit.i.i.i.i.i
  invoke void @_ZN7testing7MessageC1Ev(ptr noundef nonnull align 8 dereferenceable(8) %ref.tmp3.i.i.i.i.i)
          to label %invoke.cont.i.i.i.i.i unwind label %lpad.i.i.i.i.i

invoke.cont.i.i.i.i.i:                            ; preds = %if.else.i.i.i.i.i
  %message_.i.i.i.i.i.i.i = getelementptr inbounds i8, ptr %gtest_ar.i.i.i.i.i, i64 8
  %2 = load ptr, ptr %message_.i.i.i.i.i.i.i, align 8
  %cmp.i.i.not.i.i.i.i.i.i.i = icmp eq ptr %2, null
  br i1 %cmp.i.i.not.i.i.i.i.i.i.i, label %invoke.cont6.i.i.i.i.i, label %cond.true.i.i.i.i.i.i.i

cond.true.i.i.i.i.i.i.i:                          ; preds = %invoke.cont.i.i.i.i.i
  %call4.i.i.i.i.i.i.i = call noundef ptr @_ZNKSt7__cxx1112basic_stringIcSt11char_traitsIcESaIcEE5c_strEv(ptr noundef nonnull align 8 dereferenceable(32) %2) #16
  br label %invoke.cont6.i.i.i.i.i

invoke.cont6.i.i.i.i.i:                           ; preds = %cond.true.i.i.i.i.i.i.i, %invoke.cont.i.i.i.i.i
  %cond.i.i.i.i.i.i.i = phi ptr [ %call4.i.i.i.i.i.i.i, %cond.true.i.i.i.i.i.i.i ], [ @.str.60, %invoke.cont.i.i.i.i.i ]
  invoke void @_ZN7testing8internal12AssertHelperC1ENS_14TestPartResult4TypeEPKciS5_(ptr noundef nonnull align 8 dereferenceable(8) %ref.tmp4.i.i.i.i.i, i32 noundef 2, ptr noundef nonnull @.str.3, i32 noundef 268, ptr noundef %cond.i.i.i.i.i.i.i)
          to label %invoke.cont8.i.i.i.i.i unwind label %lpad5.i.i.i.i.i

invoke.cont8.i.i.i.i.i:                           ; preds = %invoke.cont6.i.i.i.i.i
  invoke void @_ZNK7testing8internal12AssertHelperaSERKNS_7MessageE(ptr noundef nonnull align 8 dereferenceable(8) %ref.tmp4.i.i.i.i.i, ptr noundef nonnull align 8 dereferenceable(8) %ref.tmp3.i.i.i.i.i)
          to label %invoke.cont10.i.i.i.i.i unwind label %lpad9.i.i.i.i.i

invoke.cont10.i.i.i.i.i:                          ; preds = %invoke.cont8.i.i.i.i.i
  call void @_ZN7testing8internal12AssertHelperD1Ev(ptr noundef nonnull align 8 dereferenceable(8) %ref.tmp4.i.i.i.i.i) #16
  %3 = load ptr, ptr %ref.tmp3.i.i.i.i.i, align 8
  %cmp.not.i.i.i.i.i.i.i = icmp eq ptr %3, null
  br i1 %cmp.not.i.i.i.i.i.i.i, label %_ZN7testing7MessageD2Ev.exit.i.i.i.i.i, label %_ZNKSt14default_deleteINSt7__cxx1118basic_stringstreamIcSt11char_traitsIcESaIcEEEEclEPS5_.exit.i.i.i.i.i.i.i

_ZNKSt14default_deleteINSt7__cxx1118basic_stringstreamIcSt11char_traitsIcESaIcEEEEclEPS5_.exit.i.i.i.i.i.i.i: ; preds = %invoke.cont10.i.i.i.i.i
  %vtable.i.i.i.i.i.i.i.i = load ptr, ptr %3, align 8
  %vfn.i.i.i.i.i.i.i.i = getelementptr inbounds i8, ptr %vtable.i.i.i.i.i.i.i.i, i64 8
  %4 = load ptr, ptr %vfn.i.i.i.i.i.i.i.i, align 8
  call void %4(ptr noundef nonnull align 8 dereferenceable(128) %3) #16
  br label %_ZN7testing7MessageD2Ev.exit.i.i.i.i.i

_ZN7testing7MessageD2Ev.exit.i.i.i.i.i:           ; preds = %_ZNKSt14default_deleteINSt7__cxx1118basic_stringstreamIcSt11char_traitsIcESaIcEEEEclEPS5_.exit.i.i.i.i.i.i.i, %invoke.cont10.i.i.i.i.i
  store ptr null, ptr %ref.tmp3.i.i.i.i.i, align 8
  br label %cleanup.i.i.i.i.i

lpad.i.i.i.i.i:                                   ; preds = %if.else.i.i.i.i.i
  %5 = landingpad { ptr, i32 }
          cleanup
  br label %common.resume

lpad5.i.i.i.i.i:                                  ; preds = %invoke.cont6.i.i.i.i.i
  %6 = landingpad { ptr, i32 }
          cleanup
  br label %ehcleanup.i.i.i.i.i

lpad9.i.i.i.i.i:                                  ; preds = %invoke.cont8.i.i.i.i.i
  %7 = landingpad { ptr, i32 }
          cleanup
  call void @_ZN7testing8internal12AssertHelperD1Ev(ptr noundef nonnull align 8 dereferenceable(8) %ref.tmp4.i.i.i.i.i) #16
  br label %ehcleanup.i.i.i.i.i

ehcleanup.i.i.i.i.i:                              ; preds = %lpad9.i.i.i.i.i, %lpad5.i.i.i.i.i
  %.pn.i.i.i.i.i = phi { ptr, i32 } [ %7, %lpad9.i.i.i.i.i ], [ %6, %lpad5.i.i.i.i.i ]
  %8 = load ptr, ptr %ref.tmp3.i.i.i.i.i, align 8
  %cmp.not.i.i3.i.i.i.i.i = icmp eq ptr %8, null
  br i1 %cmp.not.i.i3.i.i.i.i.i, label %_ZN7testing7MessageD2Ev.exit7.i.i.i.i.i, label %_ZNKSt14default_deleteINSt7__cxx1118basic_stringstreamIcSt11char_traitsIcESaIcEEEEclEPS5_.exit.i.i4.i.i.i.i.i

_ZNKSt14default_deleteINSt7__cxx1118basic_stringstreamIcSt11char_traitsIcESaIcEEEEclEPS5_.exit.i.i4.i.i.i.i.i: ; preds = %ehcleanup.i.i.i.i.i
  %vtable.i.i.i5.i.i.i.i.i = load ptr, ptr %8, align 8
  %vfn.i.i.i6.i.i.i.i.i = getelementptr inbounds i8, ptr %vtable.i.i.i5.i.i.i.i.i, i64 8
  %9 = load ptr, ptr %vfn.i.i.i6.i.i.i.i.i, align 8
  call void %9(ptr noundef nonnull align 8 dereferenceable(128) %8) #16
  br label %_ZN7testing7MessageD2Ev.exit7.i.i.i.i.i

_ZN7testing7MessageD2Ev.exit7.i.i.i.i.i:          ; preds = %_ZNKSt14default_deleteINSt7__cxx1118basic_stringstreamIcSt11char_traitsIcESaIcEEEEclEPS5_.exit.i.i4.i.i.i.i.i, %ehcleanup.i.i.i.i.i
  store ptr null, ptr %ref.tmp3.i.i.i.i.i, align 8
  br label %common.resume

cleanup.i.i.i.i.i:                                ; preds = %_ZN7testing7MessageD2Ev.exit.i.i.i.i.i, %_ZN7testing8internal8EqHelper7CompareIPZN4absl12_GLOBAL__N_133FunctionRef_PassByValueTypes_Test8TestBodyEvE12LargeTrivialS7_TnPNSt9enable_ifIXoontsr3std11is_integralIT_EE5valuentsr3std10is_pointerIT0_EE5valueEvE4typeELPv0EEENS_15AssertionResultEPKcSH_RKS9_RKSA_.exit.i.i.i.i.i
  %message_.i.i.i.i.i.i = getelementptr inbounds i8, ptr %gtest_ar.i.i.i.i.i, i64 8
  %10 = load ptr, ptr %message_.i.i.i.i.i.i, align 8
  %cmp.not.i.i8.i.i.i.i.i = icmp eq ptr %10, null
  br i1 %cmp.not.i.i8.i.i.i.i.i, label %_ZN7testing8internal8EqHelper7CompareIPZN4absl12_GLOBAL__N_133FunctionRef_PassByValueTypes_Test8TestBodyEvE7TrivialS7_TnPNSt9enable_ifIXoontsr3std11is_integralIT_EE5valuentsr3std10is_pointerIT0_EE5valueEvE4typeELPv0EEENS_15AssertionResultEPKcSH_RKS9_RKSA_.exit.i.i.i.i.i, label %_ZNKSt14default_deleteINSt7__cxx1112basic_stringIcSt11char_traitsIcESaIcEEEEclEPS5_.exit.i.i.i.i.i.i.i

_ZNKSt14default_deleteINSt7__cxx1112basic_stringIcSt11char_traitsIcESaIcEEEEclEPS5_.exit.i.i.i.i.i.i.i: ; preds = %cleanup.i.i.i.i.i
  call void @_ZNSt7__cxx1112basic_stringIcSt11char_traitsIcESaIcEED1Ev(ptr noundef nonnull align 8 dereferenceable(32) %10) #16
  call void @_ZdlPv(ptr noundef nonnull %10) #17
  br label %_ZN7testing8internal8EqHelper7CompareIPZN4absl12_GLOBAL__N_133FunctionRef_PassByValueTypes_Test8TestBodyEvE7TrivialS7_TnPNSt9enable_ifIXoontsr3std11is_integralIT_EE5valuentsr3std10is_pointerIT0_EE5valueEvE4typeELPv0EEENS_15AssertionResultEPKcSH_RKS9_RKSA_.exit.i.i.i.i.i

_ZN7testing8internal8EqHelper7CompareIPZN4absl12_GLOBAL__N_133FunctionRef_PassByValueTypes_Test8TestBodyEvE7TrivialS7_TnPNSt9enable_ifIXoontsr3std11is_integralIT_EE5valuentsr3std10is_pointerIT0_EE5valueEvE4typeELPv0EEENS_15AssertionResultEPKcSH_RKS9_RKSA_.exit.i.i.i.i.i: ; preds = %cleanup.i.i.i.i.i, %_ZNKSt14default_deleteINSt7__cxx1112basic_stringIcSt11char_traitsIcESaIcEEEEclEPS5_.exit.i.i.i.i.i.i.i
  call void @llvm.lifetime.end.p0(i64 16, ptr nonnull %gtest_ar.i.i.i.i.i)
  call void @llvm.lifetime.end.p0(i64 8, ptr nonnull %ref.tmp3.i.i.i.i.i)
  call void @llvm.lifetime.end.p0(i64 8, ptr nonnull %ref.tmp4.i.i.i.i.i)
  call void @llvm.lifetime.start.p0(i64 16, ptr nonnull %gtest_ar.i.i.i.i.i8)
  call void @llvm.lifetime.start.p0(i64 8, ptr nonnull %ref.tmp3.i.i.i.i.i9)
  call void @llvm.lifetime.start.p0(i64 8, ptr nonnull %ref.tmp4.i.i.i.i.i10)
  call void @_ZN7testing16AssertionSuccessEv(ptr nonnull sret(%"class.testing::AssertionResult") align 8 %gtest_ar.i.i.i.i.i8)
  %11 = load i8, ptr %gtest_ar.i.i.i.i.i8, align 8
  %12 = and i8 %11, 1
  %tobool.i.not.i.i.i.i.i32 = icmp eq i8 %12, 0
  br i1 %tobool.i.not.i.i.i.i.i32, label %if.else.i.i.i.i.i37, label %cleanup.i.i.i.i.i33

if.else.i.i.i.i.i37:                              ; preds = %_ZN7testing8internal8EqHelper7CompareIPZN4absl12_GLOBAL__N_133FunctionRef_PassByValueTypes_Test8TestBodyEvE7TrivialS7_TnPNSt9enable_ifIXoontsr3std11is_integralIT_EE5valuentsr3std10is_pointerIT0_EE5valueEvE4typeELPv0EEENS_15AssertionResultEPKcSH_RKS9_RKSA_.exit.i.i.i.i.i
  invoke void @_ZN7testing7MessageC1Ev(ptr noundef nonnull align 8 dereferenceable(8) %ref.tmp3.i.i.i.i.i9)
          to label %invoke.cont.i.i.i.i.i41 unwind label %lpad.i.i.i.i.i38

invoke.cont.i.i.i.i.i41:                          ; preds = %if.else.i.i.i.i.i37
  %message_.i.i.i.i.i.i.i42 = getelementptr inbounds i8, ptr %gtest_ar.i.i.i.i.i8, i64 8
  %13 = load ptr, ptr %message_.i.i.i.i.i.i.i42, align 8
  %cmp.i.i.not.i.i.i.i.i.i.i43 = icmp eq ptr %13, null
  br i1 %cmp.i.i.not.i.i.i.i.i.i.i43, label %invoke.cont6.i.i.i.i.i46, label %cond.true.i.i.i.i.i.i.i44

cond.true.i.i.i.i.i.i.i44:                        ; preds = %invoke.cont.i.i.i.i.i41
  %call4.i.i.i.i.i.i.i45 = call noundef ptr @_ZNKSt7__cxx1112basic_stringIcSt11char_traitsIcESaIcEE5c_strEv(ptr noundef nonnull align 8 dereferenceable(32) %13) #16
  br label %invoke.cont6.i.i.i.i.i46

invoke.cont6.i.i.i.i.i46:                         ; preds = %cond.true.i.i.i.i.i.i.i44, %invoke.cont.i.i.i.i.i41
  %cond.i.i.i.i.i.i.i47 = phi ptr [ %call4.i.i.i.i.i.i.i45, %cond.true.i.i.i.i.i.i.i44 ], [ @.str.60, %invoke.cont.i.i.i.i.i41 ]
  invoke void @_ZN7testing8internal12AssertHelperC1ENS_14TestPartResult4TypeEPKciS5_(ptr noundef nonnull align 8 dereferenceable(8) %ref.tmp4.i.i.i.i.i10, i32 noundef 2, ptr noundef nonnull @.str.3, i32 noundef 275, ptr noundef %cond.i.i.i.i.i.i.i47)
          to label %invoke.cont8.i.i.i.i.i56 unwind label %lpad5.i.i.i.i.i48

invoke.cont8.i.i.i.i.i56:                         ; preds = %invoke.cont6.i.i.i.i.i46
  invoke void @_ZNK7testing8internal12AssertHelperaSERKNS_7MessageE(ptr noundef nonnull align 8 dereferenceable(8) %ref.tmp4.i.i.i.i.i10, ptr noundef nonnull align 8 dereferenceable(8) %ref.tmp3.i.i.i.i.i9)
          to label %invoke.cont10.i.i.i.i.i58 unwind label %lpad9.i.i.i.i.i57

invoke.cont10.i.i.i.i.i58:                        ; preds = %invoke.cont8.i.i.i.i.i56
  call void @_ZN7testing8internal12AssertHelperD1Ev(ptr noundef nonnull align 8 dereferenceable(8) %ref.tmp4.i.i.i.i.i10) #16
  %14 = load ptr, ptr %ref.tmp3.i.i.i.i.i9, align 8
  %cmp.not.i.i.i.i.i.i.i59 = icmp eq ptr %14, null
  br i1 %cmp.not.i.i.i.i.i.i.i59, label %_ZN7testing7MessageD2Ev.exit.i.i.i.i.i63, label %_ZNKSt14default_deleteINSt7__cxx1118basic_stringstreamIcSt11char_traitsIcESaIcEEEEclEPS5_.exit.i.i.i.i.i.i.i60

_ZNKSt14default_deleteINSt7__cxx1118basic_stringstreamIcSt11char_traitsIcESaIcEEEEclEPS5_.exit.i.i.i.i.i.i.i60: ; preds = %invoke.cont10.i.i.i.i.i58
  %vtable.i.i.i.i.i.i.i.i61 = load ptr, ptr %14, align 8
  %vfn.i.i.i.i.i.i.i.i62 = getelementptr inbounds i8, ptr %vtable.i.i.i.i.i.i.i.i61, i64 8
  %15 = load ptr, ptr %vfn.i.i.i.i.i.i.i.i62, align 8
  call void %15(ptr noundef nonnull align 8 dereferenceable(128) %14) #16
  br label %_ZN7testing7MessageD2Ev.exit.i.i.i.i.i63

_ZN7testing7MessageD2Ev.exit.i.i.i.i.i63:         ; preds = %_ZNKSt14default_deleteINSt7__cxx1118basic_stringstreamIcSt11char_traitsIcESaIcEEEEclEPS5_.exit.i.i.i.i.i.i.i60, %invoke.cont10.i.i.i.i.i58
  store ptr null, ptr %ref.tmp3.i.i.i.i.i9, align 8
  br label %cleanup.i.i.i.i.i33

lpad.i.i.i.i.i38:                                 ; preds = %if.else.i.i.i.i.i37
  %16 = landingpad { ptr, i32 }
          cleanup
  br label %common.resume

lpad5.i.i.i.i.i48:                                ; preds = %invoke.cont6.i.i.i.i.i46
  %17 = landingpad { ptr, i32 }
          cleanup
  br label %ehcleanup.i.i.i.i.i49

lpad9.i.i.i.i.i57:                                ; preds = %invoke.cont8.i.i.i.i.i56
  %18 = landingpad { ptr, i32 }
          cleanup
  call void @_ZN7testing8internal12AssertHelperD1Ev(ptr noundef nonnull align 8 dereferenceable(8) %ref.tmp4.i.i.i.i.i10) #16
  br label %ehcleanup.i.i.i.i.i49

ehcleanup.i.i.i.i.i49:                            ; preds = %lpad9.i.i.i.i.i57, %lpad5.i.i.i.i.i48
  %.pn.i.i.i.i.i50 = phi { ptr, i32 } [ %18, %lpad9.i.i.i.i.i57 ], [ %17, %lpad5.i.i.i.i.i48 ]
  %19 = load ptr, ptr %ref.tmp3.i.i.i.i.i9, align 8
  %cmp.not.i.i3.i.i.i.i.i51 = icmp eq ptr %19, null
  br i1 %cmp.not.i.i3.i.i.i.i.i51, label %_ZN7testing7MessageD2Ev.exit7.i.i.i.i.i55, label %_ZNKSt14default_deleteINSt7__cxx1118basic_stringstreamIcSt11char_traitsIcESaIcEEEEclEPS5_.exit.i.i4.i.i.i.i.i52

_ZNKSt14default_deleteINSt7__cxx1118basic_stringstreamIcSt11char_traitsIcESaIcEEEEclEPS5_.exit.i.i4.i.i.i.i.i52: ; preds = %ehcleanup.i.i.i.i.i49
  %vtable.i.i.i5.i.i.i.i.i53 = load ptr, ptr %19, align 8
  %vfn.i.i.i6.i.i.i.i.i54 = getelementptr inbounds i8, ptr %vtable.i.i.i5.i.i.i.i.i53, i64 8
  %20 = load ptr, ptr %vfn.i.i.i6.i.i.i.i.i54, align 8
  call void %20(ptr noundef nonnull align 8 dereferenceable(128) %19) #16
  br label %_ZN7testing7MessageD2Ev.exit7.i.i.i.i.i55

_ZN7testing7MessageD2Ev.exit7.i.i.i.i.i55:        ; preds = %_ZNKSt14default_deleteINSt7__cxx1118basic_stringstreamIcSt11char_traitsIcESaIcEEEEclEPS5_.exit.i.i4.i.i.i.i.i52, %ehcleanup.i.i.i.i.i49
  store ptr null, ptr %ref.tmp3.i.i.i.i.i9, align 8
  br label %common.resume

cleanup.i.i.i.i.i33:                              ; preds = %_ZN7testing7MessageD2Ev.exit.i.i.i.i.i63, %_ZN7testing8internal8EqHelper7CompareIPZN4absl12_GLOBAL__N_133FunctionRef_PassByValueTypes_Test8TestBodyEvE7TrivialS7_TnPNSt9enable_ifIXoontsr3std11is_integralIT_EE5valuentsr3std10is_pointerIT0_EE5valueEvE4typeELPv0EEENS_15AssertionResultEPKcSH_RKS9_RKSA_.exit.i.i.i.i.i
  %message_.i.i.i.i.i.i34 = getelementptr inbounds i8, ptr %gtest_ar.i.i.i.i.i8, i64 8
  %21 = load ptr, ptr %message_.i.i.i.i.i.i34, align 8
  %cmp.not.i.i8.i.i.i.i.i35 = icmp eq ptr %21, null
  br i1 %cmp.not.i.i8.i.i.i.i.i35, label %"_ZN4absl19functional_internal12InvokeObjectIZNS_12_GLOBAL__N_133FunctionRef_PassByValueTypes_Test8TestBodyEvE3$_1vJRZNS3_8TestBodyEvE7TrivialEEET0_NS0_7VoidPtrEDpNS0_8ForwardTIT1_E4typeE.exit", label %_ZNKSt14default_deleteINSt7__cxx1112basic_stringIcSt11char_traitsIcESaIcEEEEclEPS5_.exit.i.i.i.i.i.i.i36

_ZNKSt14default_deleteINSt7__cxx1112basic_stringIcSt11char_traitsIcESaIcEEEEclEPS5_.exit.i.i.i.i.i.i.i36: ; preds = %cleanup.i.i.i.i.i33
  call void @_ZNSt7__cxx1112basic_stringIcSt11char_traitsIcESaIcEED1Ev(ptr noundef nonnull align 8 dereferenceable(32) %21) #16
  call void @_ZdlPv(ptr noundef nonnull %21) #17
  br label %"_ZN4absl19functional_internal12InvokeObjectIZNS_12_GLOBAL__N_133FunctionRef_PassByValueTypes_Test8TestBodyEvE3$_1vJRZNS3_8TestBodyEvE7TrivialEEET0_NS0_7VoidPtrEDpNS0_8ForwardTIT1_E4typeE.exit"

"_ZN4absl19functional_internal12InvokeObjectIZNS_12_GLOBAL__N_133FunctionRef_PassByValueTypes_Test8TestBodyEvE3$_1vJRZNS3_8TestBodyEvE7TrivialEEET0_NS0_7VoidPtrEDpNS0_8ForwardTIT1_E4typeE.exit": ; preds = %cleanup.i.i.i.i.i33, %_ZNKSt14default_deleteINSt7__cxx1112basic_stringIcSt11char_traitsIcESaIcEEEEclEPS5_.exit.i.i.i.i.i.i.i36
  call void @llvm.lifetime.end.p0(i64 16, ptr nonnull %gtest_ar.i.i.i.i.i8)
  call void @llvm.lifetime.end.p0(i64 8, ptr nonnull %ref.tmp3.i.i.i.i.i9)
  call void @llvm.lifetime.end.p0(i64 8, ptr nonnull %ref.tmp4.i.i.i.i.i10)
  ret void
}